target datalayout = "e-m:e-p270:32:32-p271:32:32-p272:64:64-i64:64-i128:128-f80:128-n8:16:32:64-S128"
target triple = "x86_64-pc-linux-gnu"

%union.Cv32suf = type { i32 }
%"class.cv::KeyPoint" = type { %"class.cv::Point_", float, float, float, i32, i32 }
%"class.cv::Point_" = type { float, float }

; Function Attrs: mustprogress nounwind uwtable
define noundef i64 @_ZNK2cv8KeyPoint4hashEv(ptr noundef nonnull align 4 dereferenceable(28) %0) #0 align 2 {
  %2 = alloca ptr, align 8
  %3 = alloca i64, align 8
  %4 = alloca i64, align 8
  %5 = alloca %union.Cv32suf, align 4
  store ptr %0, ptr %2, align 8, !tbaa !3
  %6 = load ptr, ptr %2, align 8
  call void @llvm.lifetime.start.p0(i64 8, ptr %3) #18
  store i64 2166136261, ptr %3, align 8, !tbaa !8
  call void @llvm.lifetime.start.p0(i64 8, ptr %4) #18
  store i64 16777619, ptr %4, align 8, !tbaa !8
  call void @llvm.lifetime.start.p0(i64 4, ptr %5) #18
  %7 = getelementptr inbounds nuw %"class.cv::KeyPoint", ptr %6, i32 0, i32 0
  %8 = getelementptr inbounds nuw %"class.cv::Point_", ptr %7, i32 0, i32 0
  %9 = load float, ptr %8, align 4, !tbaa !10
  store float %9, ptr %5, align 4, !tbaa !15
  %10 = load i64, ptr %4, align 8, !tbaa !8
  %11 = load i64, ptr %3, align 8, !tbaa !8
  %12 = mul i64 %10, %11
  %13 = load i32, ptr %5, align 4, !tbaa !15
  %14 = zext i32 %13 to i64
  %15 = xor i64 %12, %14
  store i64 %15, ptr %3, align 8, !tbaa !8
  %16 = getelementptr inbounds nuw %"class.cv::KeyPoint", ptr %6, i32 0, i32 0
  %17 = getelementptr inbounds nuw %"class.cv::Point_", ptr %16, i32 0, i32 1
  %18 = load float, ptr %17, align 4, !tbaa !16
  store float %18, ptr %5, align 4, !tbaa !15
  %19 = load i64, ptr %4, align 8, !tbaa !8
  %20 = load i64, ptr %3, align 8, !tbaa !8
  %21 = mul i64 %19, %20
  %22 = load i32, ptr %5, align 4, !tbaa !15
  %23 = zext i32 %22 to i64
  %24 = xor i64 %21, %23
  store i64 %24, ptr %3, align 8, !tbaa !8
  %25 = getelementptr inbounds nuw %"class.cv::KeyPoint", ptr %6, i32 0, i32 1
  %26 = load float, ptr %25, align 4, !tbaa !17
  store float %26, ptr %5, align 4, !tbaa !15
  %27 = load i64, ptr %4, align 8, !tbaa !8
  %28 = load i64, ptr %3, align 8, !tbaa !8
  %29 = mul i64 %27, %28
  %30 = load i32, ptr %5, align 4, !tbaa !15
  %31 = zext i32 %30 to i64
  %32 = xor i64 %29, %31
  store i64 %32, ptr %3, align 8, !tbaa !8
  %33 = getelementptr inbounds nuw %"class.cv::KeyPoint", ptr %6, i32 0, i32 2
  %34 = load float, ptr %33, align 4, !tbaa !18
  store float %34, ptr %5, align 4, !tbaa !15
  %35 = load i64, ptr %4, align 8, !tbaa !8
  %36 = load i64, ptr %3, align 8, !tbaa !8
  %37 = mul i64 %35, %36
  %38 = load i32, ptr %5, align 4, !tbaa !15
  %39 = zext i32 %38 to i64
  %40 = xor i64 %37, %39
  store i64 %40, ptr %3, align 8, !tbaa !8
  %41 = getelementptr inbounds nuw %"class.cv::KeyPoint", ptr %6, i32 0, i32 3
  %42 = load float, ptr %41, align 4, !tbaa !19
  store float %42, ptr %5, align 4, !tbaa !15
  %43 = load i64, ptr %4, align 8, !tbaa !8
  %44 = load i64, ptr %3, align 8, !tbaa !8
  %45 = mul i64 %43, %44
  %46 = load i32, ptr %5, align 4, !tbaa !15
  %47 = zext i32 %46 to i64
  %48 = xor i64 %45, %47
  store i64 %48, ptr %3, align 8, !tbaa !8
  %49 = load i64, ptr %4, align 8, !tbaa !8
  %50 = load i64, ptr %3, align 8, !tbaa !8
  %51 = mul i64 %49, %50
  %52 = getelementptr inbounds nuw %"class.cv::KeyPoint", ptr %6, i32 0, i32 4
  %53 = load i32, ptr %52, align 4, !tbaa !20
  %54 = sext i32 %53 to i64
  %55 = xor i64 %51, %54
  store i64 %55, ptr %3, align 8, !tbaa !8
  %56 = load i64, ptr %4, align 8, !tbaa !8
  %57 = load i64, ptr %3, align 8, !tbaa !8
  %58 = mul i64 %56, %57
  %59 = getelementptr inbounds nuw %"class.cv::KeyPoint", ptr %6, i32 0, i32 5
  %60 = load i32, ptr %59, align 4, !tbaa !21
  %61 = sext i32 %60 to i64
  %62 = xor i64 %58, %61
  store i64 %62, ptr %3, align 8, !tbaa !8
  %63 = load i64, ptr %3, align 8, !tbaa !8
  call void @llvm.lifetime.end.p0(i64 4, ptr %5) #18
  call void @llvm.lifetime.end.p0(i64 8, ptr %4) #18
  call void @llvm.lifetime.end.p0(i64 8, ptr %3) #18
  ret i64 %63
}