; Function Attrs: mustprogress nofree norecurse nosync nounwind willreturn memory(argmem: read) uwtable
define noundef i64 @_ZNK2cv8KeyPoint4hashEv(ptr noundef nonnull readonly align 4 captures(none) dereferenceable(28) %0) local_unnamed_addr #0 align 2 {
  %2 = load i32, ptr %0, align 4, !tbaa !3
  %3 = zext i32 %2 to i64
  %4 = xor i64 %3, 36342608889142559
  %5 = getelementptr inbounds nuw i8, ptr %0, i64 4
  %6 = load i32, ptr %5, align 4, !tbaa !10
  %7 = mul i64 %4, 16777619
  %8 = zext i32 %6 to i64
  %9 = xor i64 %7, %8
  %10 = getelementptr inbounds nuw i8, ptr %0, i64 8
  %11 = load i32, ptr %10, align 4, !tbaa !11
  %12 = mul i64 %9, 16777619
  %13 = zext i32 %11 to i64
  %14 = xor i64 %12, %13
  %15 = getelementptr inbounds nuw i8, ptr %0, i64 12
  %16 = load i32, ptr %15, align 4, !tbaa !12
  %17 = mul i64 %14, 16777619
  %18 = zext i32 %16 to i64
  %19 = xor i64 %17, %18
  %20 = getelementptr inbounds nuw i8, ptr %0, i64 16
  %21 = load i32, ptr %20, align 4, !tbaa !13
  %22 = mul i64 %19, 16777619
  %23 = zext i32 %21 to i64
  %24 = xor i64 %22, %23
  %25 = mul i64 %24, 16777619
  %26 = getelementptr inbounds nuw i8, ptr %0, i64 20
  %27 = load i32, ptr %26, align 4, !tbaa !14
  %28 = sext i32 %27 to i64
  %29 = xor i64 %25, %28
  %30 = mul i64 %29, 16777619
  %31 = getelementptr inbounds nuw i8, ptr %0, i64 24
  %32 = load i32, ptr %31, align 4, !tbaa !15
  %33 = sext i32 %32 to i64
  %34 = xor i64 %30, %33
  ret i64 %34
}